target datalayout = "e-m:e-p270:32:32-p271:32:32-p272:64:64-i64:64-i128:128-f80:128-n8:16:32:64-S128"
target triple = "x86_64-pc-linux-gnu"

%struct.stbi__write_context = type { ptr, ptr, [64 x i8], i32 }
%struct.__va_list_tag = type { i32, i32, ptr, ptr }

@_ZL30stbi__flip_vertically_on_write = internal global i32 0, align 4

; Function Attrs: mustprogress uwtable
define internal void @_ZL18stbiw__write_flushP19stbi__write_context(ptr noundef %0) #2 {
  %2 = alloca ptr, align 8
  store ptr %0, ptr %2, align 8, !tbaa !10
  %3 = load ptr, ptr %2, align 8, !tbaa !10
  %4 = getelementptr inbounds nuw %struct.stbi__write_context, ptr %3, i32 0, i32 3
  %5 = load i32, ptr %4, align 8, !tbaa !338
  %6 = icmp ne i32 %5, 0
  br i1 %6, label %7, label %21

7:                                                ; preds = %1
  %8 = load ptr, ptr %2, align 8, !tbaa !10
  %9 = getelementptr inbounds nuw %struct.stbi__write_context, ptr %8, i32 0, i32 0
  %10 = load ptr, ptr %9, align 8, !tbaa !329
  %11 = load ptr, ptr %2, align 8, !tbaa !10
  %12 = getelementptr inbounds nuw %struct.stbi__write_context, ptr %11, i32 0, i32 1
  %13 = load ptr, ptr %12, align 8, !tbaa !331
  %14 = load ptr, ptr %2, align 8, !tbaa !10
  %15 = getelementptr inbounds nuw %struct.stbi__write_context, ptr %14, i32 0, i32 2
  %16 = load ptr, ptr %2, align 8, !tbaa !10
  %17 = getelementptr inbounds nuw %struct.stbi__write_context, ptr %16, i32 0, i32 3
  %18 = load i32, ptr %17, align 8, !tbaa !338
  call void %10(ptr noundef %13, ptr noundef %15, i32 noundef %18)
  %19 = load ptr, ptr %2, align 8, !tbaa !10
  %20 = getelementptr inbounds nuw %struct.stbi__write_context, ptr %19, i32 0, i32 3
  store i32 0, ptr %20, align 8, !tbaa !338
  br label %21

21:                                               ; preds = %7, %1
  ret void
}

; Function Attrs: mustprogress uwtable
define internal void @_ZL19stbiw__write_pixelsP19stbi__write_contextiiiiiPviii(ptr noundef %0, i32 noundef %1, i32 noundef %2, i32 noundef %3, i32 noundef %4, i32 noundef %5, ptr noundef %6, i32 noundef %7, i32 noundef %8, i32 noundef %9) #2 {
  %11 = alloca ptr, align 8
  %12 = alloca i32, align 4
  %13 = alloca i32, align 4
  %14 = alloca i32, align 4
  %15 = alloca i32, align 4
  %16 = alloca i32, align 4
  %17 = alloca ptr, align 8
  %18 = alloca i32, align 4
  %19 = alloca i32, align 4
  %20 = alloca i32, align 4
  %21 = alloca i32, align 4
  %22 = alloca i32, align 4
  %23 = alloca i32, align 4
  %24 = alloca i32, align 4
  %25 = alloca i32, align 4
  %26 = alloca ptr, align 8
  store ptr %0, ptr %11, align 8, !tbaa !10
  store i32 %1, ptr %12, align 4, !tbaa !11
  store i32 %2, ptr %13, align 4, !tbaa !11
  store i32 %3, ptr %14, align 4, !tbaa !11
  store i32 %4, ptr %15, align 4, !tbaa !11
  store i32 %5, ptr %16, align 4, !tbaa !11
  store ptr %6, ptr %17, align 8, !tbaa !10
  store i32 %7, ptr %18, align 4, !tbaa !11
  store i32 %8, ptr %19, align 4, !tbaa !11
  store i32 %9, ptr %20, align 4, !tbaa !11
  call void @llvm.lifetime.start.p0(i64 4, ptr %21) #22
  store i32 0, ptr %21, align 4, !tbaa !11
  call void @llvm.lifetime.start.p0(i64 4, ptr %22) #22
  call void @llvm.lifetime.start.p0(i64 4, ptr %23) #22
  call void @llvm.lifetime.start.p0(i64 4, ptr %24) #22
  %27 = load i32, ptr %15, align 4, !tbaa !11
  %28 = icmp sle i32 %27, 0
  br i1 %28, label %29, label %30

29:                                               ; preds = %10
  store i32 1, ptr %25, align 4
  br label %88

30:                                               ; preds = %10
  %31 = load i32, ptr @_ZL30stbi__flip_vertically_on_write, align 4, !tbaa !11
  %32 = icmp ne i32 %31, 0
  br i1 %32, label %33, label %36

33:                                               ; preds = %30
  %34 = load i32, ptr %13, align 4, !tbaa !11
  %35 = mul nsw i32 %34, -1
  store i32 %35, ptr %13, align 4, !tbaa !11
  br label %36

36:                                               ; preds = %33, %30
  %37 = load i32, ptr %13, align 4, !tbaa !11
  %38 = icmp slt i32 %37, 0
  br i1 %38, label %39, label %42

39:                                               ; preds = %36
  store i32 -1, ptr %24, align 4, !tbaa !11
  %40 = load i32, ptr %15, align 4, !tbaa !11
  %41 = sub nsw i32 %40, 1
  store i32 %41, ptr %23, align 4, !tbaa !11
  br label %44

42:                                               ; preds = %36
  %43 = load i32, ptr %15, align 4, !tbaa !11
  store i32 %43, ptr %24, align 4, !tbaa !11
  store i32 0, ptr %23, align 4, !tbaa !11
  br label %44

44:                                               ; preds = %42, %39
  br label %45

45:                                               ; preds = %83, %44
  %46 = load i32, ptr %23, align 4, !tbaa !11
  %47 = load i32, ptr %24, align 4, !tbaa !11
  %48 = icmp ne i32 %46, %47
  br i1 %48, label %49, label %87

49:                                               ; preds = %45
  store i32 0, ptr %22, align 4, !tbaa !11
  br label %50

50:                                               ; preds = %71, %49
  %51 = load i32, ptr %22, align 4, !tbaa !11
  %52 = load i32, ptr %14, align 4, !tbaa !11
  %53 = icmp slt i32 %51, %52
  br i1 %53, label %54, label %74

54:                                               ; preds = %50
  call void @llvm.lifetime.start.p0(i64 8, ptr %26) #22
  %55 = load ptr, ptr %17, align 8, !tbaa !10
  %56 = load i32, ptr %23, align 4, !tbaa !11
  %57 = load i32, ptr %14, align 4, !tbaa !11
  %58 = mul nsw i32 %56, %57
  %59 = load i32, ptr %22, align 4, !tbaa !11
  %60 = add nsw i32 %58, %59
  %61 = load i32, ptr %16, align 4, !tbaa !11
  %62 = mul nsw i32 %60, %61
  %63 = sext i32 %62 to i64
  %64 = getelementptr inbounds i8, ptr %55, i64 %63
  store ptr %64, ptr %26, align 8, !tbaa !5
  %65 = load ptr, ptr %11, align 8, !tbaa !10
  %66 = load i32, ptr %12, align 4, !tbaa !11
  %67 = load i32, ptr %16, align 4, !tbaa !11
  %68 = load i32, ptr %18, align 4, !tbaa !11
  %69 = load i32, ptr %20, align 4, !tbaa !11
  %70 = load ptr, ptr %26, align 8, !tbaa !5
  call void @_ZL18stbiw__write_pixelP19stbi__write_contextiiiiPh(ptr noundef %65, i32 noundef %66, i32 noundef %67, i32 noundef %68, i32 noundef %69, ptr noundef %70)
  call void @llvm.lifetime.end.p0(i64 8, ptr %26) #22
  br label %71

71:                                               ; preds = %54
  %72 = load i32, ptr %22, align 4, !tbaa !11
  %73 = add nsw i32 %72, 1
  store i32 %73, ptr %22, align 4, !tbaa !11
  br label %50, !llvm.loop !335

74:                                               ; preds = %50
  %75 = load ptr, ptr %11, align 8, !tbaa !10
  call void @_ZL18stbiw__write_flushP19stbi__write_context(ptr noundef %75)
  %76 = load ptr, ptr %11, align 8, !tbaa !10
  %77 = getelementptr inbounds nuw %struct.stbi__write_context, ptr %76, i32 0, i32 0
  %78 = load ptr, ptr %77, align 8, !tbaa !329
  %79 = load ptr, ptr %11, align 8, !tbaa !10
  %80 = getelementptr inbounds nuw %struct.stbi__write_context, ptr %79, i32 0, i32 1
  %81 = load ptr, ptr %80, align 8, !tbaa !331
  %82 = load i32, ptr %19, align 4, !tbaa !11
  call void %78(ptr noundef %81, ptr noundef %21, i32 noundef %82)
  br label %83

83:                                               ; preds = %74
  %84 = load i32, ptr %13, align 4, !tbaa !11
  %85 = load i32, ptr %23, align 4, !tbaa !11
  %86 = add nsw i32 %85, %84
  store i32 %86, ptr %23, align 4, !tbaa !11
  br label %45, !llvm.loop !336

87:                                               ; preds = %45
  store i32 0, ptr %25, align 4
  br label %88

88:                                               ; preds = %87, %29
  call void @llvm.lifetime.end.p0(i64 4, ptr %24) #22
  call void @llvm.lifetime.end.p0(i64 4, ptr %23) #22
  call void @llvm.lifetime.end.p0(i64 4, ptr %22) #22
  call void @llvm.lifetime.end.p0(i64 4, ptr %21) #22
  %89 = load i32, ptr %25, align 4
  switch i32 %89, label %91 [
    i32 0, label %90
    i32 1, label %90
  ]

90:                                               ; preds = %88, %88
  ret void

91:                                               ; preds = %88
  unreachable
}

; Function Attrs: mustprogress uwtable
define internal noundef i32 @_ZL14stbiw__outfileP19stbi__write_contextiiiiiiPviiPKcz(ptr noundef %0, i32 noundef %1, i32 noundef %2, i32 noundef %3, i32 noundef %4, i32 noundef %5, i32 noundef %6, ptr noundef %7, i32 noundef %8, i32 noundef %9, ptr noundef %10, ...) #2 {
  %12 = alloca i32, align 4
  %13 = alloca ptr, align 8
  %14 = alloca i32, align 4
  %15 = alloca i32, align 4
  %16 = alloca i32, align 4
  %17 = alloca i32, align 4
  %18 = alloca i32, align 4
  %19 = alloca i32, align 4
  %20 = alloca ptr, align 8
  %21 = alloca i32, align 4
  %22 = alloca i32, align 4
  %23 = alloca ptr, align 8
  %24 = alloca [1 x %struct.__va_list_tag], align 16
  store ptr %0, ptr %13, align 8, !tbaa !10
  store i32 %1, ptr %14, align 4, !tbaa !11
  store i32 %2, ptr %15, align 4, !tbaa !11
  store i32 %3, ptr %16, align 4, !tbaa !11
  store i32 %4, ptr %17, align 4, !tbaa !11
  store i32 %5, ptr %18, align 4, !tbaa !11
  store i32 %6, ptr %19, align 4, !tbaa !11
  store ptr %7, ptr %20, align 8, !tbaa !10
  store i32 %8, ptr %21, align 4, !tbaa !11
  store i32 %9, ptr %22, align 4, !tbaa !11
  store ptr %10, ptr %23, align 8, !tbaa !5
  %25 = load i32, ptr %17, align 4, !tbaa !11
  %26 = icmp slt i32 %25, 0
  br i1 %26, label %30, label %27

27:                                               ; preds = %11
  %28 = load i32, ptr %16, align 4, !tbaa !11
  %29 = icmp slt i32 %28, 0
  br i1 %29, label %30, label %31

30:                                               ; preds = %27, %11
  store i32 0, ptr %12, align 4
  br label %47

31:                                               ; preds = %27
  call void @llvm.lifetime.start.p0(i64 24, ptr %24) #22
  %32 = getelementptr inbounds [1 x %struct.__va_list_tag], ptr %24, i64 0, i64 0
  call void @llvm.va_start.p0(ptr %32)
  %33 = load ptr, ptr %13, align 8, !tbaa !10
  %34 = load ptr, ptr %23, align 8, !tbaa !5
  %35 = getelementptr inbounds [1 x %struct.__va_list_tag], ptr %24, i64 0, i64 0
  call void @_ZL14stbiw__writefvP19stbi__write_contextPKcP13__va_list_tag(ptr noundef %33, ptr noundef %34, ptr noundef %35)
  %36 = getelementptr inbounds [1 x %struct.__va_list_tag], ptr %24, i64 0, i64 0
  call void @llvm.va_end.p0(ptr %36)
  %37 = load ptr, ptr %13, align 8, !tbaa !10
  %38 = load i32, ptr %14, align 4, !tbaa !11
  %39 = load i32, ptr %15, align 4, !tbaa !11
  %40 = load i32, ptr %16, align 4, !tbaa !11
  %41 = load i32, ptr %17, align 4, !tbaa !11
  %42 = load i32, ptr %18, align 4, !tbaa !11
  %43 = load ptr, ptr %20, align 8, !tbaa !10
  %44 = load i32, ptr %21, align 4, !tbaa !11
  %45 = load i32, ptr %22, align 4, !tbaa !11
  %46 = load i32, ptr %19, align 4, !tbaa !11
  call void @_ZL19stbiw__write_pixelsP19stbi__write_contextiiiiiPviii(ptr noundef %37, i32 noundef %38, i32 noundef %39, i32 noundef %40, i32 noundef %41, i32 noundef %42, ptr noundef %43, i32 noundef %44, i32 noundef %45, i32 noundef %46)
  store i32 1, ptr %12, align 4
  call void @llvm.lifetime.end.p0(i64 24, ptr %24) #22
  br label %47

47:                                               ; preds = %31, %30
  %48 = load i32, ptr %12, align 4
  ret i32 %48
}